; Function Attrs: nounwind uwtable
define void @duckdb_je_wrtmessage(ptr readnone captures(none) %0, ptr noundef %1) local_unnamed_addr #0 {
  %3 = tail call i64 @strlen(ptr noundef nonnull dereferenceable(1) %1) #13
  br label %4

4:                                                ; preds = %4, %2
  %.014.i = phi i64 [ 0, %2 ], [ %9, %4 ]
  %5 = getelementptr inbounds nuw i8, ptr %1, i64 %.014.i
  %6 = sub i64 %3, %.014.i
  %7 = tail call i64 (i64, ...) @syscall(i64 noundef 1, i32 noundef 2, ptr noundef nonnull %5, i64 noundef %6) #14
  %8 = icmp sgt i64 %7, -1
  %9 = add i64 %7, %.014.i
  %10 = icmp ult i64 %9, %3
  %or.cond = and i1 %8, %10
  br i1 %or.cond, label %4, label %malloc_write_fd.exit

malloc_write_fd.exit:                             ; preds = %4
  ret void
}